; Function Attrs: mustprogress uwtable
define internal fastcc void @_Z24tcp_shutdown_buffer_listPN12_GLOBAL__N_18grpc_tcpE(ptr noundef %tcp) unnamed_addr #6 personality ptr @__gxx_personality_v0 {
entry:
  %agg.tmp = alloca %"class.absl::lts_20230802::Status", align 8
  %ref.tmp = alloca %"class.grpc_core::DebugLocation", align 1
  %agg.tmp3 = alloca %"class.std::vector", align 8
  %outgoing_buffer_arg = getelementptr inbounds i8, ptr %tcp, i64 616
  %0 = load ptr, ptr %outgoing_buffer_arg, align 8
  %tobool.not = icmp eq ptr %0, null
  br i1 %tobool.not, label %if.end, label %if.then

if.then:                                          ; preds = %entry
  call void @llvm.memset.p0.i64(ptr noundef nonnull align 8 dereferenceable(24) %agg.tmp3, i8 0, i64 24, i1 false)
  invoke void @_ZN9grpc_core12StatusCreateEN4absl12lts_2023080210StatusCodeESt17basic_string_viewIcSt11char_traitsIcEERKNS_13DebugLocationESt6vectorINS1_6StatusESaISB_EE(ptr nonnull sret(%"class.absl::lts_20230802::Status") align 8 %agg.tmp, i32 noundef 2, i64 26, ptr nonnull @.str.20, ptr noundef nonnull align 1 dereferenceable(1) %ref.tmp, ptr noundef nonnull %agg.tmp3)
          to label %invoke.cont unwind label %lpad

invoke.cont:                                      ; preds = %if.then
  %tb_list = getelementptr inbounds i8, ptr %tcp, i64 592
  invoke void @_ZN9grpc_core16TracedBufferList8ShutdownEPvN4absl12lts_202308026StatusE(ptr noundef nonnull align 8 dereferenceable(24) %tb_list, ptr noundef nonnull %0, ptr noundef nonnull %agg.tmp)
          to label %invoke.cont5 unwind label %lpad4

invoke.cont5:                                     ; preds = %invoke.cont
  %1 = load i64, ptr %agg.tmp, align 8
  %and.i.i.i = and i64 %1, 1
  %cmp.i.i.i = icmp eq i64 %and.i.i.i, 0
  br i1 %cmp.i.i.i, label %_ZN4absl12lts_202308026StatusD2Ev.exit, label %if.then.i.i

if.then.i.i:                                      ; preds = %invoke.cont5
  invoke void @_ZN4absl12lts_202308026Status15UnrefNonInlinedEm(i64 noundef %1)
          to label %_ZN4absl12lts_202308026StatusD2Ev.exit unwind label %terminate.lpad.i

terminate.lpad.i:                                 ; preds = %if.then.i.i
  %2 = landingpad { ptr, i32 }
          catch ptr null
  %3 = extractvalue { ptr, i32 } %2, 0
  call void @__clang_call_terminate(ptr %3) #27
  unreachable

_ZN4absl12lts_202308026StatusD2Ev.exit:           ; preds = %invoke.cont5, %if.then.i.i
  %4 = load ptr, ptr %agg.tmp3, align 8
  %_M_finish.i = getelementptr inbounds i8, ptr %agg.tmp3, i64 8
  %5 = load ptr, ptr %_M_finish.i, align 8
  %cmp.not3.i.i.i.i = icmp eq ptr %4, %5
  br i1 %cmp.not3.i.i.i.i, label %invoke.cont.i, label %for.body.i.i.i.i

for.body.i.i.i.i:                                 ; preds = %_ZN4absl12lts_202308026StatusD2Ev.exit, %_ZSt8_DestroyIN4absl12lts_202308026StatusEEvPT_.exit.i.i.i.i
  %__first.addr.04.i.i.i.i = phi ptr [ %incdec.ptr.i.i.i.i, %_ZSt8_DestroyIN4absl12lts_202308026StatusEEvPT_.exit.i.i.i.i ], [ %4, %_ZN4absl12lts_202308026StatusD2Ev.exit ]
  %6 = load i64, ptr %__first.addr.04.i.i.i.i, align 8
  %and.i.i.i.i.i.i.i.i = and i64 %6, 1
  %cmp.i.i.i.i.i.i.i.i = icmp eq i64 %and.i.i.i.i.i.i.i.i, 0
  br i1 %cmp.i.i.i.i.i.i.i.i, label %_ZSt8_DestroyIN4absl12lts_202308026StatusEEvPT_.exit.i.i.i.i, label %if.then.i.i.i.i.i.i.i

if.then.i.i.i.i.i.i.i:                            ; preds = %for.body.i.i.i.i
  invoke void @_ZN4absl12lts_202308026Status15UnrefNonInlinedEm(i64 noundef %6)
          to label %_ZSt8_DestroyIN4absl12lts_202308026StatusEEvPT_.exit.i.i.i.i unwind label %terminate.lpad.i.i.i.i.i.i

terminate.lpad.i.i.i.i.i.i:                       ; preds = %if.then.i.i.i.i.i.i.i
  %7 = landingpad { ptr, i32 }
          catch ptr null
  %8 = extractvalue { ptr, i32 } %7, 0
  call void @__clang_call_terminate(ptr %8) #27
  unreachable

_ZSt8_DestroyIN4absl12lts_202308026StatusEEvPT_.exit.i.i.i.i: ; preds = %if.then.i.i.i.i.i.i.i, %for.body.i.i.i.i
  %incdec.ptr.i.i.i.i = getelementptr inbounds i8, ptr %__first.addr.04.i.i.i.i, i64 8
  %cmp.not.i.i.i.i = icmp eq ptr %incdec.ptr.i.i.i.i, %5
  br i1 %cmp.not.i.i.i.i, label %invoke.contthread-pre-split.i, label %for.body.i.i.i.i, !llvm.loop !44

invoke.contthread-pre-split.i:                    ; preds = %_ZSt8_DestroyIN4absl12lts_202308026StatusEEvPT_.exit.i.i.i.i
  %.pr.i = load ptr, ptr %agg.tmp3, align 8
  br label %invoke.cont.i

invoke.cont.i:                                    ; preds = %invoke.contthread-pre-split.i, %_ZN4absl12lts_202308026StatusD2Ev.exit
  %9 = phi ptr [ %.pr.i, %invoke.contthread-pre-split.i ], [ %4, %_ZN4absl12lts_202308026StatusD2Ev.exit ]
  %tobool.not.i.i.i = icmp eq ptr %9, null
  br i1 %tobool.not.i.i.i, label %_ZNSt6vectorIN4absl12lts_202308026StatusESaIS2_EED2Ev.exit, label %if.then.i.i.i

if.then.i.i.i:                                    ; preds = %invoke.cont.i
  call void @_ZdlPv(ptr noundef nonnull %9) #25
  br label %_ZNSt6vectorIN4absl12lts_202308026StatusESaIS2_EED2Ev.exit

_ZNSt6vectorIN4absl12lts_202308026StatusESaIS2_EED2Ev.exit: ; preds = %invoke.cont.i, %if.then.i.i.i
  store ptr null, ptr %outgoing_buffer_arg, align 8
  br label %if.end

lpad:                                             ; preds = %if.then
  %10 = landingpad { ptr, i32 }
          cleanup
  br label %ehcleanup

lpad4:                                            ; preds = %invoke.cont
  %11 = landingpad { ptr, i32 }
          cleanup
  call void @_ZN4absl12lts_202308026StatusD2Ev(ptr noundef nonnull align 8 dereferenceable(8) %agg.tmp) #24
  br label %ehcleanup

ehcleanup:                                        ; preds = %lpad4, %lpad
  %.pn = phi { ptr, i32 } [ %11, %lpad4 ], [ %10, %lpad ]
  call void @_ZNSt6vectorIN4absl12lts_202308026StatusESaIS2_EED2Ev(ptr noundef nonnull align 8 dereferenceable(24) %agg.tmp3) #24
  resume { ptr, i32 } %.pn

if.end:                                           ; preds = %_ZNSt6vectorIN4absl12lts_202308026StatusESaIS2_EED2Ev.exit, %entry
  ret void
}